; Function Attrs: mustprogress nofree norecurse nosync nounwind memory(argmem: readwrite) uwtable
define void @_ZN5faiss30fvec_L2sqr_ny_y_transposed_refEPfPKfS2_S2_mmm(ptr noundef writeonly captures(none) %0, ptr noundef readonly captures(none) %1, ptr noundef readonly captures(none) %2, ptr noundef readonly captures(none) %3, i64 noundef %4, i64 noundef %5, i64 noundef %6) local_unnamed_addr #2 {
  %.not = icmp eq i64 %4, 0
  br i1 %.not, label %.preheader31.thread, label %.lr.ph

.preheader31:                                     ; preds = %.lr.ph
  %.not40 = icmp eq i64 %6, 0
  br i1 %.not40, label %._crit_edge39, label %.preheader.us

.preheader31.thread:                              ; preds = %7
  %.not4048 = icmp eq i64 %6, 0
  br i1 %.not4048, label %._crit_edge39, label %.preheader

.preheader.us:                                    ; preds = %.preheader31, %._crit_edge.us
  %.02738.us = phi i64 [ %22, %._crit_edge.us ], [ 0, %.preheader31 ]
  %8 = getelementptr float, ptr %2, i64 %.02738.us
  br label %9

9:                                                ; preds = %.preheader.us, %9
  %.035.us = phi i64 [ 0, %.preheader.us ], [ %16, %9 ]
  %.02634.us = phi float [ 0.000000e+00, %.preheader.us ], [ %15, %9 ]
  %10 = getelementptr inbounds nuw float, ptr %1, i64 %.035.us
  %11 = load float, ptr %10, align 4, !tbaa !4
  %12 = mul i64 %.035.us, %5
  %13 = getelementptr float, ptr %8, i64 %12
  %14 = load float, ptr %13, align 4, !tbaa !4
  %15 = tail call float @llvm.fmuladd.f32(float %11, float %14, float %.02634.us)
  %16 = add nuw i64 %.035.us, 1
  %exitcond44.not = icmp eq i64 %16, %4
  br i1 %exitcond44.not, label %._crit_edge.us, label %9, !llvm.loop !18

._crit_edge.us:                                   ; preds = %9
  %17 = getelementptr inbounds nuw float, ptr %3, i64 %.02738.us
  %18 = load float, ptr %17, align 4, !tbaa !4
  %19 = fadd float %25, %18
  %20 = tail call float @llvm.fmuladd.f32(float %15, float -2.000000e+00, float %19)
  %21 = getelementptr inbounds nuw float, ptr %0, i64 %.02738.us
  store float %20, ptr %21, align 4, !tbaa !4
  %22 = add nuw i64 %.02738.us, 1
  %exitcond45.not = icmp eq i64 %22, %6
  br i1 %exitcond45.not, label %._crit_edge39, label %.preheader.us, !llvm.loop !19

.lr.ph:                                           ; preds = %7, %.lr.ph
  %.02833 = phi i64 [ %26, %.lr.ph ], [ 0, %7 ]
  %.02932 = phi float [ %25, %.lr.ph ], [ 0.000000e+00, %7 ]
  %23 = getelementptr inbounds nuw float, ptr %1, i64 %.02833
  %24 = load float, ptr %23, align 4, !tbaa !4
  %25 = tail call float @llvm.fmuladd.f32(float %24, float %24, float %.02932)
  %26 = add nuw i64 %.02833, 1
  %exitcond.not = icmp eq i64 %26, %4
  br i1 %exitcond.not, label %.preheader31, label %.lr.ph, !llvm.loop !20

.preheader:                                       ; preds = %.preheader31.thread, %.preheader
  %.02738 = phi i64 [ %31, %.preheader ], [ 0, %.preheader31.thread ]
  %27 = getelementptr inbounds nuw float, ptr %3, i64 %.02738
  %28 = load float, ptr %27, align 4, !tbaa !4
  %29 = fadd float %28, 0.000000e+00
  %30 = getelementptr inbounds nuw float, ptr %0, i64 %.02738
  store float %29, ptr %30, align 4, !tbaa !4
  %31 = add nuw i64 %.02738, 1
  %exitcond46.not = icmp eq i64 %31, %6
  br i1 %exitcond46.not, label %._crit_edge39, label %.preheader, !llvm.loop !19

._crit_edge39:                                    ; preds = %._crit_edge.us, %.preheader, %.preheader31.thread, %.preheader31
  ret void
}